; ModuleID = '24/71.c'
source_filename = "24/71.c"
target datalayout = "e-m:e-p270:32:32-p271:32:32-p272:64:64-i64:64-f80:128-n8:16:32:64-S128"
target triple = "x86_64-pc-linux-gnu"

@.str = private unnamed_addr constant [3 x i8] c"%c\00", align 1
@.str.1 = private unnamed_addr constant [2 x i8] c"\0A\00", align 1

; Function Attrs: noinline nounwind uwtable
define dso_local i32 @main() #0 {
  %1 = alloca i32, align 4
  %2 = alloca [510 x i8], align 16
  %3 = alloca i8*, align 8
  %4 = alloca i32, align 4
  %5 = alloca i32, align 4
  %6 = alloca i32, align 4
  %7 = alloca i32, align 4
  %8 = alloca i32, align 4
  %9 = alloca i32, align 4
  %10 = alloca i32, align 4
  %11 = alloca i32, align 4
  %12 = alloca i32, align 4
  store i32 0, i32* %1, align 4
  store i32 0, i32* %11, align 4
  store i32 0, i32* %12, align 4
  %13 = getelementptr inbounds [510 x i8], [510 x i8]* %2, i64 0, i64 0
  %14 = call i32 (i8*, ...) bitcast (i32 (...)* @gets to i32 (i8*, ...)*)(i8* %13)
  %15 = getelementptr inbounds [510 x i8], [510 x i8]* %2, i64 0, i64 0
  store i8* %15, i8** %3, align 8
  store i32 0, i32* %4, align 4
  br label %16

16:                                               ; preds = %35, %0
  %17 = load i8*, i8** %3, align 8
  %18 = load i32, i32* %4, align 4
  %19 = sext i32 %18 to i64
  %20 = getelementptr inbounds i8, i8* %17, i64 %19
  %21 = load i8, i8* %20, align 1
  %22 = sext i8 %21 to i32
  %23 = icmp ne i32 %22, 0
  br i1 %23, label %24, label %38

24:                                               ; preds = %16
  %25 = load i8*, i8** %3, align 8
  %26 = load i32, i32* %4, align 4
  %27 = sext i32 %26 to i64
  %28 = getelementptr inbounds i8, i8* %25, i64 %27
  %29 = load i8, i8* %28, align 1
  %30 = sext i8 %29 to i32
  %31 = icmp eq i32 %30, 32
  br i1 %31, label %32, label %34

32:                                               ; preds = %24
  %33 = load i32, i32* %4, align 4
  store i32 %33, i32* %7, align 4
  store i32 %33, i32* %6, align 4
  br label %38

34:                                               ; preds = %24
  br label %35

35:                                               ; preds = %34
  %36 = load i32, i32* %4, align 4
  %37 = add nsw i32 %36, 1
  store i32 %37, i32* %4, align 4
  br label %16

38:                                               ; preds = %32, %16
  store i32 1, i32* %4, align 4
  br label %39

39:                                               ; preds = %94, %38
  %40 = load i8*, i8** %3, align 8
  %41 = load i32, i32* %4, align 4
  %42 = sext i32 %41 to i64
  %43 = getelementptr inbounds i8, i8* %40, i64 %42
  %44 = load i8, i8* %43, align 1
  %45 = sext i8 %44 to i32
  %46 = icmp ne i32 %45, 0
  br i1 %46, label %47, label %97

47:                                               ; preds = %39
  %48 = load i8*, i8** %3, align 8
  %49 = load i32, i32* %4, align 4
  %50 = sext i32 %49 to i64
  %51 = getelementptr inbounds i8, i8* %48, i64 %50
  %52 = getelementptr inbounds i8, i8* %51, i64 -1
  %53 = load i8, i8* %52, align 1
  %54 = sext i8 %53 to i32
  %55 = icmp eq i32 %54, 32
  br i1 %55, label %56, label %93

56:                                               ; preds = %47
  %57 = load i32, i32* %4, align 4
  store i32 %57, i32* %8, align 4
  %58 = load i32, i32* %4, align 4
  store i32 %58, i32* %10, align 4
  br label %59

59:                                               ; preds = %78, %56
  %60 = load i8*, i8** %3, align 8
  %61 = load i32, i32* %10, align 4
  %62 = sext i32 %61 to i64
  %63 = getelementptr inbounds i8, i8* %60, i64 %62
  %64 = load i8, i8* %63, align 1
  %65 = sext i8 %64 to i32
  %66 = icmp eq i32 %65, 32
  br i1 %66, label %75, label %67

67:                                               ; preds = %59
  %68 = load i8*, i8** %3, align 8
  %69 = load i32, i32* %10, align 4
  %70 = sext i32 %69 to i64
  %71 = getelementptr inbounds i8, i8* %68, i64 %70
  %72 = load i8, i8* %71, align 1
  %73 = sext i8 %72 to i32
  %74 = icmp eq i32 %73, 0
  br i1 %74, label %75, label %77

75:                                               ; preds = %67, %59
  %76 = load i32, i32* %10, align 4
  store i32 %76, i32* %9, align 4
  br label %81

77:                                               ; preds = %67
  br label %78

78:                                               ; preds = %77
  %79 = load i32, i32* %10, align 4
  %80 = add nsw i32 %79, 1
  store i32 %80, i32* %10, align 4
  br label %59

81:                                               ; preds = %75
  %82 = load i32, i32* %9, align 4
  %83 = load i32, i32* %8, align 4
  %84 = sub nsw i32 %82, %83
  %85 = load i32, i32* %6, align 4
  %86 = icmp sgt i32 %84, %85
  br i1 %86, label %87, label %92

87:                                               ; preds = %81
  %88 = load i32, i32* %9, align 4
  %89 = load i32, i32* %8, align 4
  %90 = sub nsw i32 %88, %89
  store i32 %90, i32* %6, align 4
  %91 = load i32, i32* %8, align 4
  store i32 %91, i32* %11, align 4
  br label %92

92:                                               ; preds = %87, %81
  br label %93

93:                                               ; preds = %92, %47
  br label %94

94:                                               ; preds = %93
  %95 = load i32, i32* %4, align 4
  %96 = add nsw i32 %95, 1
  store i32 %96, i32* %4, align 4
  br label %39

97:                                               ; preds = %39
  store i32 1, i32* %4, align 4
  br label %98

98:                                               ; preds = %153, %97
  %99 = load i8*, i8** %3, align 8
  %100 = load i32, i32* %4, align 4
  %101 = sext i32 %100 to i64
  %102 = getelementptr inbounds i8, i8* %99, i64 %101
  %103 = load i8, i8* %102, align 1
  %104 = sext i8 %103 to i32
  %105 = icmp ne i32 %104, 0
  br i1 %105, label %106, label %156

106:                                              ; preds = %98
  %107 = load i8*, i8** %3, align 8
  %108 = load i32, i32* %4, align 4
  %109 = sext i32 %108 to i64
  %110 = getelementptr inbounds i8, i8* %107, i64 %109
  %111 = getelementptr inbounds i8, i8* %110, i64 -1
  %112 = load i8, i8* %111, align 1
  %113 = sext i8 %112 to i32
  %114 = icmp eq i32 %113, 32
  br i1 %114, label %115, label %152

115:                                              ; preds = %106
  %116 = load i32, i32* %4, align 4
  store i32 %116, i32* %8, align 4
  %117 = load i32, i32* %4, align 4
  store i32 %117, i32* %10, align 4
  br label %118

118:                                              ; preds = %137, %115
  %119 = load i8*, i8** %3, align 8
  %120 = load i32, i32* %10, align 4
  %121 = sext i32 %120 to i64
  %122 = getelementptr inbounds i8, i8* %119, i64 %121
  %123 = load i8, i8* %122, align 1
  %124 = sext i8 %123 to i32
  %125 = icmp eq i32 %124, 32
  br i1 %125, label %134, label %126

126:                                              ; preds = %118
  %127 = load i8*, i8** %3, align 8
  %128 = load i32, i32* %10, align 4
  %129 = sext i32 %128 to i64
  %130 = getelementptr inbounds i8, i8* %127, i64 %129
  %131 = load i8, i8* %130, align 1
  %132 = sext i8 %131 to i32
  %133 = icmp eq i32 %132, 0
  br i1 %133, label %134, label %136

134:                                              ; preds = %126, %118
  %135 = load i32, i32* %10, align 4
  store i32 %135, i32* %9, align 4
  br label %140

136:                                              ; preds = %126
  br label %137

137:                                              ; preds = %136
  %138 = load i32, i32* %10, align 4
  %139 = add nsw i32 %138, 1
  store i32 %139, i32* %10, align 4
  br label %118

140:                                              ; preds = %134
  %141 = load i32, i32* %9, align 4
  %142 = load i32, i32* %8, align 4
  %143 = sub nsw i32 %141, %142
  %144 = load i32, i32* %7, align 4
  %145 = icmp slt i32 %143, %144
  br i1 %145, label %146, label %151

146:                                              ; preds = %140
  %147 = load i32, i32* %9, align 4
  %148 = load i32, i32* %8, align 4
  %149 = sub nsw i32 %147, %148
  store i32 %149, i32* %7, align 4
  %150 = load i32, i32* %8, align 4
  store i32 %150, i32* %12, align 4
  br label %151

151:                                              ; preds = %146, %140
  br label %152

152:                                              ; preds = %151, %106
  br label %153

153:                                              ; preds = %152
  %154 = load i32, i32* %4, align 4
  %155 = add nsw i32 %154, 1
  store i32 %155, i32* %4, align 4
  br label %98

156:                                              ; preds = %98
  %157 = load i32, i32* %11, align 4
  store i32 %157, i32* %4, align 4
  br label %158

158:                                              ; preds = %172, %156
  %159 = load i32, i32* %4, align 4
  %160 = load i32, i32* %11, align 4
  %161 = load i32, i32* %6, align 4
  %162 = add nsw i32 %160, %161
  %163 = icmp slt i32 %159, %162
  br i1 %163, label %164, label %175

164:                                              ; preds = %158
  %165 = load i8*, i8** %3, align 8
  %166 = load i32, i32* %4, align 4
  %167 = sext i32 %166 to i64
  %168 = getelementptr inbounds i8, i8* %165, i64 %167
  %169 = load i8, i8* %168, align 1
  %170 = sext i8 %169 to i32
  %171 = call i32 (i8*, ...) @printf(i8* getelementptr inbounds ([3 x i8], [3 x i8]* @.str, i64 0, i64 0), i32 %170)
  br label %172

172:                                              ; preds = %164
  %173 = load i32, i32* %4, align 4
  %174 = add nsw i32 %173, 1
  store i32 %174, i32* %4, align 4
  br label %158

175:                                              ; preds = %158
  %176 = call i32 (i8*, ...) @printf(i8* getelementptr inbounds ([2 x i8], [2 x i8]* @.str.1, i64 0, i64 0))
  %177 = load i32, i32* %12, align 4
  store i32 %177, i32* %4, align 4
  br label %178

178:                                              ; preds = %192, %175
  %179 = load i32, i32* %4, align 4
  %180 = load i32, i32* %12, align 4
  %181 = load i32, i32* %7, align 4
  %182 = add nsw i32 %180, %181
  %183 = icmp slt i32 %179, %182
  br i1 %183, label %184, label %195

184:                                              ; preds = %178
  %185 = load i8*, i8** %3, align 8
  %186 = load i32, i32* %4, align 4
  %187 = sext i32 %186 to i64
  %188 = getelementptr inbounds i8, i8* %185, i64 %187
  %189 = load i8, i8* %188, align 1
  %190 = sext i8 %189 to i32
  %191 = call i32 (i8*, ...) @printf(i8* getelementptr inbounds ([3 x i8], [3 x i8]* @.str, i64 0, i64 0), i32 %190)
  br label %192

192:                                              ; preds = %184
  %193 = load i32, i32* %4, align 4
  %194 = add nsw i32 %193, 1
  store i32 %194, i32* %4, align 4
  br label %178

195:                                              ; preds = %178
  ret i32 0
}

declare dso_local i32 @gets(...) #1

declare dso_local i32 @printf(i8*, ...) #1


!llvm.module.flags = !{!0}
!llvm.ident = !{!1}

!0 = !{i32 1, !"wchar_size", i32 4}
!1 = !{!"clang version 10.0.0-4ubuntu1 "}
